target datalayout = "e-m:e-p270:32:32-p271:32:32-p272:64:64-i64:64-i128:128-f80:128-n8:16:32:64-S128"
target triple = "x86_64-pc-linux-gnu"

%struct.H5HF_debug_iter_ud1_t = type { ptr, i32, i32, i64, i64, ptr, i64, i64 }
%struct.H5HF_free_section_t = type { %struct.H5FS_section_info_t, %union.anon.0 }
%struct.H5FS_section_info_t = type { i64, i64, i32, i32 }
%union.anon.0 = type { %struct.anon.2 }
%struct.anon.2 = type { %union.anon.3, i32, i32, i32, ptr, i32, i64, i32, i32, i32, ptr, i32, ptr }
%union.anon.3 = type { ptr }

@H5HF_init_g = external global i8, align 1
@H5_libterm_g = external global i8, align 1
@.str.6 = private unnamed_addr constant [1 x i8] zeroinitializer, align 1
@.str.92 = private unnamed_addr constant [13 x i8] c"Section #%u:\00", align 1
@.str.93 = private unnamed_addr constant [20 x i8] c"%*s%-*s %8zu, %8zu\0A\00", align 1
@.str.94 = private unnamed_addr constant [47 x i8] c"***THAT FREE BLOCK OVERLAPPED A PREVIOUS ONE!\0A\00", align 1

; Function Attrs: nounwind uwtable
define internal i32 @H5HF_dblock_debug_cb(ptr noundef %0, ptr noundef %1) #0 {
  %3 = alloca ptr, align 8
  %4 = alloca ptr, align 8
  %5 = alloca ptr, align 8
  %6 = alloca ptr, align 8
  %7 = alloca i64, align 8
  %8 = alloca i64, align 8
  %9 = alloca i64, align 8
  %10 = alloca i64, align 8
  %11 = alloca [32 x i8], align 16
  %12 = alloca i64, align 8
  %13 = alloca i64, align 8
  %14 = alloca i64, align 8
  %15 = alloca i64, align 8
  %16 = alloca i64, align 8
  store ptr %0, ptr %3, align 8, !tbaa !128
  store ptr %1, ptr %4, align 8, !tbaa !8
  call void @llvm.lifetime.start.p0(i64 8, ptr %5) #8
  %17 = load ptr, ptr %3, align 8, !tbaa !128
  store ptr %17, ptr %5, align 8, !tbaa !130
  call void @llvm.lifetime.start.p0(i64 8, ptr %6) #8
  %18 = load ptr, ptr %4, align 8, !tbaa !8
  store ptr %18, ptr %6, align 8, !tbaa !8
  call void @llvm.lifetime.start.p0(i64 8, ptr %7) #8
  call void @llvm.lifetime.start.p0(i64 8, ptr %8) #8
  call void @llvm.lifetime.start.p0(i64 8, ptr %9) #8
  call void @llvm.lifetime.start.p0(i64 8, ptr %10) #8
  %19 = load i8, ptr @H5HF_init_g, align 1, !tbaa !15, !range !17, !noundef !18
  %20 = trunc i8 %19 to i1
  br i1 %20, label %25, label %21

21:                                               ; preds = %2
  %22 = load i8, ptr @H5_libterm_g, align 1, !tbaa !15, !range !17, !noundef !18
  %23 = trunc i8 %22 to i1
  %24 = xor i1 %23, true
  br label %25

25:                                               ; preds = %21, %2
  %26 = phi i1 [ true, %2 ], [ %24, %21 ]
  %27 = xor i1 %26, true
  %28 = xor i1 %27, true
  %29 = zext i1 %28 to i32
  %30 = sext i32 %29 to i64
  %31 = call i64 @llvm.expect.i64(i64 %30, i64 1)
  %32 = icmp ne i64 %31, 0
  br i1 %32, label %33, label %184

33:                                               ; preds = %25
  %34 = load ptr, ptr %5, align 8, !tbaa !130
  %35 = getelementptr inbounds nuw %struct.H5HF_free_section_t, ptr %34, i32 0, i32 0
  %36 = getelementptr inbounds nuw %struct.H5FS_section_info_t, ptr %35, i32 0, i32 0
  %37 = load i64, ptr %36, align 8, !tbaa !132
  store i64 %37, ptr %7, align 8, !tbaa !20
  %38 = load ptr, ptr %5, align 8, !tbaa !130
  %39 = getelementptr inbounds nuw %struct.H5HF_free_section_t, ptr %38, i32 0, i32 0
  %40 = getelementptr inbounds nuw %struct.H5FS_section_info_t, ptr %39, i32 0, i32 0
  %41 = load i64, ptr %40, align 8, !tbaa !132
  %42 = load ptr, ptr %5, align 8, !tbaa !130
  %43 = getelementptr inbounds nuw %struct.H5HF_free_section_t, ptr %42, i32 0, i32 0
  %44 = getelementptr inbounds nuw %struct.H5FS_section_info_t, ptr %43, i32 0, i32 1
  %45 = load i64, ptr %44, align 8, !tbaa !135
  %46 = add i64 %41, %45
  %47 = sub i64 %46, 1
  store i64 %47, ptr %8, align 8, !tbaa !20
  %48 = load ptr, ptr %6, align 8, !tbaa !8
  %49 = getelementptr inbounds nuw %struct.H5HF_debug_iter_ud1_t, ptr %48, i32 0, i32 3
  %50 = load i64, ptr %49, align 8, !tbaa !122
  store i64 %50, ptr %9, align 8, !tbaa !20
  %51 = load ptr, ptr %6, align 8, !tbaa !8
  %52 = getelementptr inbounds nuw %struct.H5HF_debug_iter_ud1_t, ptr %51, i32 0, i32 3
  %53 = load i64, ptr %52, align 8, !tbaa !122
  %54 = load ptr, ptr %6, align 8, !tbaa !8
  %55 = getelementptr inbounds nuw %struct.H5HF_debug_iter_ud1_t, ptr %54, i32 0, i32 4
  %56 = load i64, ptr %55, align 8, !tbaa !123
  %57 = add i64 %53, %56
  %58 = sub i64 %57, 1
  store i64 %58, ptr %10, align 8, !tbaa !20
  %59 = load i64, ptr %7, align 8, !tbaa !20
  %60 = load i64, ptr %10, align 8, !tbaa !20
  %61 = icmp ule i64 %59, %60
  br i1 %61, label %62, label %66

62:                                               ; preds = %33
  %63 = load i64, ptr %8, align 8, !tbaa !20
  %64 = load i64, ptr %9, align 8, !tbaa !20
  %65 = icmp uge i64 %63, %64
  br i1 %65, label %74, label %66

66:                                               ; preds = %62, %33
  %67 = load i64, ptr %7, align 8, !tbaa !20
  %68 = load i64, ptr %10, align 8, !tbaa !20
  %69 = icmp ule i64 %67, %68
  br i1 %69, label %70, label %183

70:                                               ; preds = %66
  %71 = load i64, ptr %8, align 8, !tbaa !20
  %72 = load i64, ptr %10, align 8, !tbaa !20
  %73 = icmp uge i64 %71, %72
  br i1 %73, label %74, label %183

74:                                               ; preds = %70, %62
  call void @llvm.lifetime.start.p0(i64 32, ptr %11) #8
  call void @llvm.lifetime.start.p0(i64 8, ptr %12) #8
  call void @llvm.lifetime.start.p0(i64 8, ptr %13) #8
  call void @llvm.lifetime.start.p0(i64 8, ptr %14) #8
  call void @llvm.lifetime.start.p0(i64 8, ptr %15) #8
  call void @llvm.lifetime.start.p0(i64 8, ptr %16) #8
  %75 = load i64, ptr %7, align 8, !tbaa !20
  %76 = load i64, ptr %9, align 8, !tbaa !20
  %77 = icmp ult i64 %75, %76
  br i1 %77, label %78, label %79

78:                                               ; preds = %74
  store i64 0, ptr %12, align 8, !tbaa !20
  br label %86

79:                                               ; preds = %74
  br label %80

80:                                               ; preds = %79
  %81 = load i64, ptr %7, align 8, !tbaa !20
  %82 = load i64, ptr %9, align 8, !tbaa !20
  %83 = sub i64 %81, %82
  store i64 %83, ptr %12, align 8, !tbaa !20
  br label %84

84:                                               ; preds = %80
  br label %85

85:                                               ; preds = %84
  br label %86

86:                                               ; preds = %85, %78
  %87 = load i64, ptr %8, align 8, !tbaa !20
  %88 = load i64, ptr %10, align 8, !tbaa !20
  %89 = icmp ugt i64 %87, %88
  br i1 %89, label %90, label %97

90:                                               ; preds = %86
  br label %91

91:                                               ; preds = %90
  %92 = load ptr, ptr %6, align 8, !tbaa !8
  %93 = getelementptr inbounds nuw %struct.H5HF_debug_iter_ud1_t, ptr %92, i32 0, i32 4
  %94 = load i64, ptr %93, align 8, !tbaa !123
  store i64 %94, ptr %13, align 8, !tbaa !20
  br label %95

95:                                               ; preds = %91
  br label %96

96:                                               ; preds = %95
  br label %105

97:                                               ; preds = %86
  br label %98

98:                                               ; preds = %97
  %99 = load i64, ptr %8, align 8, !tbaa !20
  %100 = load i64, ptr %9, align 8, !tbaa !20
  %101 = sub i64 %99, %100
  %102 = add i64 %101, 1
  store i64 %102, ptr %13, align 8, !tbaa !20
  br label %103

103:                                              ; preds = %98
  br label %104

104:                                              ; preds = %103
  br label %105

105:                                              ; preds = %104, %96
  %106 = load i64, ptr %13, align 8, !tbaa !20
  %107 = load i64, ptr %12, align 8, !tbaa !20
  %108 = sub i64 %106, %107
  store i64 %108, ptr %14, align 8, !tbaa !20
  %109 = getelementptr inbounds [32 x i8], ptr %11, i64 0, i64 0
  %110 = load ptr, ptr %6, align 8, !tbaa !8
  %111 = getelementptr inbounds nuw %struct.H5HF_debug_iter_ud1_t, ptr %110, i32 0, i32 6
  %112 = load i64, ptr %111, align 8, !tbaa !125
  %113 = trunc i64 %112 to i32
  %114 = call i32 (ptr, i64, ptr, ...) @snprintf(ptr noundef %109, i64 noundef 32, ptr noundef @.str.92, i32 noundef %113) #8
  %115 = load ptr, ptr %6, align 8, !tbaa !8
  %116 = getelementptr inbounds nuw %struct.H5HF_debug_iter_ud1_t, ptr %115, i32 0, i32 0
  %117 = load ptr, ptr %116, align 8, !tbaa !118
  %118 = load ptr, ptr %6, align 8, !tbaa !8
  %119 = getelementptr inbounds nuw %struct.H5HF_debug_iter_ud1_t, ptr %118, i32 0, i32 1
  %120 = load i32, ptr %119, align 8, !tbaa !120
  %121 = add nsw i32 %120, 3
  %122 = load ptr, ptr %6, align 8, !tbaa !8
  %123 = getelementptr inbounds nuw %struct.H5HF_debug_iter_ud1_t, ptr %122, i32 0, i32 2
  %124 = load i32, ptr %123, align 4, !tbaa !121
  %125 = sub nsw i32 %124, 9
  %126 = icmp sgt i32 0, %125
  br i1 %126, label %127, label %128

127:                                              ; preds = %105
  br label %133

128:                                              ; preds = %105
  %129 = load ptr, ptr %6, align 8, !tbaa !8
  %130 = getelementptr inbounds nuw %struct.H5HF_debug_iter_ud1_t, ptr %129, i32 0, i32 2
  %131 = load i32, ptr %130, align 4, !tbaa !121
  %132 = sub nsw i32 %131, 9
  br label %133

133:                                              ; preds = %128, %127
  %134 = phi i32 [ 0, %127 ], [ %132, %128 ]
  %135 = getelementptr inbounds [32 x i8], ptr %11, i64 0, i64 0
  %136 = load i64, ptr %12, align 8, !tbaa !20
  %137 = load i64, ptr %14, align 8, !tbaa !20
  %138 = call i32 (ptr, ptr, ...) @fprintf(ptr noundef %117, ptr noundef @.str.93, i32 noundef %121, ptr noundef @.str.6, i32 noundef %134, ptr noundef %135, i64 noundef %136, i64 noundef %137) #8
  %139 = load ptr, ptr %6, align 8, !tbaa !8
  %140 = getelementptr inbounds nuw %struct.H5HF_debug_iter_ud1_t, ptr %139, i32 0, i32 6
  %141 = load i64, ptr %140, align 8, !tbaa !125
  %142 = add i64 %141, 1
  store i64 %142, ptr %140, align 8, !tbaa !125
  store i64 0, ptr %15, align 8, !tbaa !20
  %143 = load i64, ptr %12, align 8, !tbaa !20
  store i64 %143, ptr %16, align 8, !tbaa !20
  br label %144

144:                                              ; preds = %165, %133
  %145 = load i64, ptr %16, align 8, !tbaa !20
  %146 = load i64, ptr %13, align 8, !tbaa !20
  %147 = icmp ult i64 %145, %146
  br i1 %147, label %148, label %168

148:                                              ; preds = %144
  %149 = load ptr, ptr %6, align 8, !tbaa !8
  %150 = getelementptr inbounds nuw %struct.H5HF_debug_iter_ud1_t, ptr %149, i32 0, i32 5
  %151 = load ptr, ptr %150, align 8, !tbaa !124
  %152 = load i64, ptr %16, align 8, !tbaa !20
  %153 = getelementptr inbounds nuw i8, ptr %151, i64 %152
  %154 = load i8, ptr %153, align 1, !tbaa !19
  %155 = icmp ne i8 %154, 0
  br i1 %155, label %156, label %159

156:                                              ; preds = %148
  %157 = load i64, ptr %15, align 8, !tbaa !20
  %158 = add i64 %157, 1
  store i64 %158, ptr %15, align 8, !tbaa !20
  br label %159

159:                                              ; preds = %156, %148
  %160 = load ptr, ptr %6, align 8, !tbaa !8
  %161 = getelementptr inbounds nuw %struct.H5HF_debug_iter_ud1_t, ptr %160, i32 0, i32 5
  %162 = load ptr, ptr %161, align 8, !tbaa !124
  %163 = load i64, ptr %16, align 8, !tbaa !20
  %164 = getelementptr inbounds nuw i8, ptr %162, i64 %163
  store i8 1, ptr %164, align 1, !tbaa !19
  br label %165

165:                                              ; preds = %159
  %166 = load i64, ptr %16, align 8, !tbaa !20
  %167 = add i64 %166, 1
  store i64 %167, ptr %16, align 8, !tbaa !20
  br label %144, !llvm.loop !136

168:                                              ; preds = %144
  %169 = load i64, ptr %15, align 8, !tbaa !20
  %170 = icmp ne i64 %169, 0
  br i1 %170, label %171, label %176

171:                                              ; preds = %168
  %172 = load ptr, ptr %6, align 8, !tbaa !8
  %173 = getelementptr inbounds nuw %struct.H5HF_debug_iter_ud1_t, ptr %172, i32 0, i32 0
  %174 = load ptr, ptr %173, align 8, !tbaa !118
  %175 = call i32 (ptr, ptr, ...) @fprintf(ptr noundef %174, ptr noundef @.str.94) #8
  br label %182

176:                                              ; preds = %168
  %177 = load i64, ptr %14, align 8, !tbaa !20
  %178 = load ptr, ptr %6, align 8, !tbaa !8
  %179 = getelementptr inbounds nuw %struct.H5HF_debug_iter_ud1_t, ptr %178, i32 0, i32 7
  %180 = load i64, ptr %179, align 8, !tbaa !126
  %181 = add i64 %180, %177
  store i64 %181, ptr %179, align 8, !tbaa !126
  br label %182

182:                                              ; preds = %176, %171
  call void @llvm.lifetime.end.p0(i64 8, ptr %16) #8
  call void @llvm.lifetime.end.p0(i64 8, ptr %15) #8
  call void @llvm.lifetime.end.p0(i64 8, ptr %14) #8
  call void @llvm.lifetime.end.p0(i64 8, ptr %13) #8
  call void @llvm.lifetime.end.p0(i64 8, ptr %12) #8
  call void @llvm.lifetime.end.p0(i64 32, ptr %11) #8
  br label %183

183:                                              ; preds = %182, %70, %66
  br label %184

184:                                              ; preds = %183, %25
  call void @llvm.lifetime.end.p0(i64 8, ptr %10) #8
  call void @llvm.lifetime.end.p0(i64 8, ptr %9) #8
  call void @llvm.lifetime.end.p0(i64 8, ptr %8) #8
  call void @llvm.lifetime.end.p0(i64 8, ptr %7) #8
  call void @llvm.lifetime.end.p0(i64 8, ptr %6) #8
  call void @llvm.lifetime.end.p0(i64 8, ptr %5) #8
  ret i32 0
}