; Function Attrs: nofree nounwind uwtable
define internal noundef i32 @H5HF_dblock_debug_cb(ptr noundef readonly captures(none) %0, ptr noundef captures(none) %1) #4 {
  %3 = alloca [32 x i8], align 16
  %4 = load i8, ptr @H5HF_init_g, align 1, !tbaa !3, !range !7, !noundef !8
  %5 = trunc nuw i8 %4 to i1
  %6 = load i8, ptr @H5_libterm_g, align 1, !range !7
  %7 = trunc nuw i8 %6 to i1
  %8 = xor i1 %7, true
  %9 = select i1 %5, i1 true, i1 %8
  br i1 %9, label %10, label %58, !prof !9

10:                                               ; preds = %2
  %11 = load i64, ptr %0, align 8, !tbaa !118
  %12 = getelementptr inbounds nuw i8, ptr %0, i64 8
  %13 = load i64, ptr %12, align 8, !tbaa !121
  %14 = add i64 %11, -1
  %15 = add i64 %14, %13
  %16 = getelementptr inbounds nuw i8, ptr %1, i64 16
  %17 = load i64, ptr %16, align 8, !tbaa !113
  %18 = getelementptr inbounds nuw i8, ptr %1, i64 24
  %19 = load i64, ptr %18, align 8, !tbaa !114
  %20 = add i64 %17, -1
  %21 = add i64 %20, %19
  %.not = icmp ugt i64 %11, %21
  %.not55 = icmp ult i64 %15, %17
  %.not56 = icmp ult i64 %15, %21
  %22 = and i1 %.not55, %.not56
  %or.cond61 = select i1 %.not, i1 true, i1 %22
  br i1 %or.cond61, label %58, label %23

23:                                               ; preds = %10
  call void @llvm.lifetime.start.p0(i64 32, ptr nonnull %3) #9
  %.048 = tail call i64 @llvm.usub.sat.i64(i64 %11, i64 %17)
  %24 = icmp ugt i64 %15, %21
  %reass.sub = sub i64 %15, %17
  %25 = add i64 %reass.sub, 1
  %.049 = select i1 %24, i64 %19, i64 %25
  %26 = sub i64 %.049, %.048
  %27 = getelementptr inbounds nuw i8, ptr %1, i64 40
  %28 = load i64, ptr %27, align 8, !tbaa !122
  %29 = trunc i64 %28 to i32
  %30 = call i32 (ptr, i64, ptr, ...) @snprintf(ptr noundef nonnull dereferenceable(1) %3, i64 noundef 32, ptr noundef nonnull @.str.92, i32 noundef %29) #9
  %31 = load ptr, ptr %1, align 8, !tbaa !109
  %32 = getelementptr inbounds nuw i8, ptr %1, i64 8
  %33 = load i32, ptr %32, align 8, !tbaa !111
  %34 = add nsw i32 %33, 3
  %35 = getelementptr inbounds nuw i8, ptr %1, i64 12
  %36 = load i32, ptr %35, align 4, !tbaa !112
  %37 = tail call i32 @llvm.smax.i32(i32 %36, i32 9)
  %spec.select = add nsw i32 %37, -9
  %38 = call i32 (ptr, ptr, ...) @fprintf(ptr noundef %31, ptr noundef nonnull @.str.93, i32 noundef %34, ptr noundef nonnull @.str.6, i32 noundef %spec.select, ptr noundef nonnull %3, i64 noundef %.048, i64 noundef %26) #9
  %39 = load i64, ptr %27, align 8, !tbaa !122
  %40 = add i64 %39, 1
  store i64 %40, ptr %27, align 8, !tbaa !122
  %41 = icmp ult i64 %.048, %.049
  br i1 %41, label %.lr.ph, label %._crit_edge.thread

.lr.ph:                                           ; preds = %23
  %42 = getelementptr inbounds nuw i8, ptr %1, i64 32
  br label %43

43:                                               ; preds = %.lr.ph, %43
  %.063 = phi i64 [ %.048, %.lr.ph ], [ %48, %43 ]
  %.04762 = phi i64 [ 0, %.lr.ph ], [ %spec.select60, %43 ]
  %44 = load ptr, ptr %42, align 8, !tbaa !115
  %45 = getelementptr inbounds nuw i8, ptr %44, i64 %.063
  %46 = load i8, ptr %45, align 1, !tbaa !10
  %.not58 = icmp ne i8 %46, 0
  %47 = zext i1 %.not58 to i64
  %spec.select60 = add i64 %.04762, %47
  store i8 1, ptr %45, align 1, !tbaa !10
  %48 = add nuw i64 %.063, 1
  %49 = icmp ult i64 %48, %.049
  br i1 %49, label %43, label %._crit_edge, !llvm.loop !123

._crit_edge:                                      ; preds = %43
  %50 = icmp eq i64 %spec.select60, 0
  br i1 %50, label %._crit_edge.thread, label %51

51:                                               ; preds = %._crit_edge
  %52 = load ptr, ptr %1, align 8, !tbaa !109
  %53 = call i64 @fwrite(ptr nonnull @.str.94, i64 46, i64 1, ptr %52)
  br label %57

._crit_edge.thread:                               ; preds = %23, %._crit_edge
  %54 = getelementptr inbounds nuw i8, ptr %1, i64 48
  %55 = load i64, ptr %54, align 8, !tbaa !116
  %56 = add i64 %55, %26
  store i64 %56, ptr %54, align 8, !tbaa !116
  br label %57

57:                                               ; preds = %._crit_edge.thread, %51
  call void @llvm.lifetime.end.p0(i64 32, ptr nonnull %3) #9
  br label %58

58:                                               ; preds = %10, %57, %2
  ret i32 0
}